target datalayout = "e-m:e-p270:32:32-p271:32:32-p272:64:64-i64:64-i128:128-f80:128-n8:16:32:64-S128"
target triple = "x86_64-pc-linux-gnu"

%struct.Vec_Int_t_ = type { i32, i32, ptr }

; Function Attrs: inlinehint nounwind uwtable
define internal i32 @Vec_IntEntry(ptr noundef %0, i32 noundef %1) #2 {
  %3 = alloca ptr, align 8
  %4 = alloca i32, align 4
  store ptr %0, ptr %3, align 8, !tbaa !142
  store i32 %1, ptr %4, align 4, !tbaa !27
  %5 = load ptr, ptr %3, align 8, !tbaa !142
  %6 = getelementptr inbounds nuw %struct.Vec_Int_t_, ptr %5, i32 0, i32 2
  %7 = load ptr, ptr %6, align 8, !tbaa !149
  %8 = load i32, ptr %4, align 4, !tbaa !27
  %9 = sext i32 %8 to i64
  %10 = getelementptr inbounds i32, ptr %7, i64 %9
  %11 = load i32, ptr %10, align 4, !tbaa !27
  ret i32 %11
}

; Function Attrs: inlinehint nounwind uwtable
define internal i32 @Vec_IntSize(ptr noundef %0) #2 {
  %2 = alloca ptr, align 8
  store ptr %0, ptr %2, align 8, !tbaa !142
  %3 = load ptr, ptr %2, align 8, !tbaa !142
  %4 = getelementptr inbounds nuw %struct.Vec_Int_t_, ptr %3, i32 0, i32 1
  %5 = load i32, ptr %4, align 4, !tbaa !148
  ret i32 %5
}

; Function Attrs: nounwind uwtable
define ptr @Abc_NodeConvertSopToMvSop(i32 noundef %0, ptr noundef %1, ptr noundef %2) #0 {
  %4 = alloca ptr, align 8
  %5 = alloca i32, align 4
  %6 = alloca ptr, align 8
  %7 = alloca ptr, align 8
  %8 = alloca ptr, align 8
  %9 = alloca ptr, align 8
  %10 = alloca i32, align 4
  %11 = alloca i32, align 4
  %12 = alloca i32, align 4
  %13 = alloca i32, align 4
  %14 = alloca i32, align 4
  %15 = alloca i32, align 4
  %16 = alloca i32, align 4
  store i32 %0, ptr %5, align 4, !tbaa !27
  store ptr %1, ptr %6, align 8, !tbaa !142
  store ptr %2, ptr %7, align 8, !tbaa !142
  call void @llvm.lifetime.start.p0(i64 8, ptr %8) #9
  call void @llvm.lifetime.start.p0(i64 8, ptr %9) #9
  call void @llvm.lifetime.start.p0(i64 4, ptr %10) #9
  call void @llvm.lifetime.start.p0(i64 4, ptr %11) #9
  call void @llvm.lifetime.start.p0(i64 4, ptr %12) #9
  call void @llvm.lifetime.start.p0(i64 4, ptr %13) #9
  call void @llvm.lifetime.start.p0(i64 4, ptr %14) #9
  call void @llvm.lifetime.start.p0(i64 4, ptr %15) #9
  %17 = load ptr, ptr %6, align 8, !tbaa !142
  %18 = call i32 @Vec_IntSize(ptr noundef %17)
  %19 = icmp eq i32 %18, 0
  br i1 %19, label %24, label %20

20:                                               ; preds = %3
  %21 = load ptr, ptr %7, align 8, !tbaa !142
  %22 = call i32 @Vec_IntSize(ptr noundef %21)
  %23 = icmp eq i32 %22, 0
  br i1 %23, label %24, label %64

24:                                               ; preds = %20, %3
  %25 = load i32, ptr %5, align 4, !tbaa !27
  %26 = add nsw i32 %25, 3
  %27 = sext i32 %26 to i64
  %28 = mul i64 1, %27
  %29 = call noalias ptr @malloc(i64 noundef %28) #10
  store ptr %29, ptr %8, align 8, !tbaa !58
  store i32 0, ptr %15, align 4, !tbaa !27
  br label %30

30:                                               ; preds = %39, %24
  %31 = load i32, ptr %15, align 4, !tbaa !27
  %32 = load i32, ptr %5, align 4, !tbaa !27
  %33 = icmp slt i32 %31, %32
  br i1 %33, label %34, label %42

34:                                               ; preds = %30
  %35 = load ptr, ptr %8, align 8, !tbaa !58
  %36 = load i32, ptr %15, align 4, !tbaa !27
  %37 = sext i32 %36 to i64
  %38 = getelementptr inbounds i8, ptr %35, i64 %37
  store i8 45, ptr %38, align 1, !tbaa !57
  br label %39

39:                                               ; preds = %34
  %40 = load i32, ptr %15, align 4, !tbaa !27
  %41 = add nsw i32 %40, 1
  store i32 %41, ptr %15, align 4, !tbaa !27
  br label %30, !llvm.loop !143

42:                                               ; preds = %30
  %43 = load ptr, ptr %7, align 8, !tbaa !142
  %44 = call i32 @Vec_IntSize(ptr noundef %43)
  %45 = icmp sgt i32 %44, 0
  %46 = zext i1 %45 to i32
  %47 = add nsw i32 48, %46
  %48 = trunc i32 %47 to i8
  %49 = load ptr, ptr %8, align 8, !tbaa !58
  %50 = load i32, ptr %5, align 4, !tbaa !27
  %51 = sext i32 %50 to i64
  %52 = getelementptr inbounds i8, ptr %49, i64 %51
  store i8 %48, ptr %52, align 1, !tbaa !57
  %53 = load ptr, ptr %8, align 8, !tbaa !58
  %54 = load i32, ptr %5, align 4, !tbaa !27
  %55 = add nsw i32 %54, 1
  %56 = sext i32 %55 to i64
  %57 = getelementptr inbounds i8, ptr %53, i64 %56
  store i8 10, ptr %57, align 1, !tbaa !57
  %58 = load ptr, ptr %8, align 8, !tbaa !58
  %59 = load i32, ptr %5, align 4, !tbaa !27
  %60 = add nsw i32 %59, 2
  %61 = sext i32 %60 to i64
  %62 = getelementptr inbounds i8, ptr %58, i64 %61
  store i8 0, ptr %62, align 1, !tbaa !57
  %63 = load ptr, ptr %8, align 8, !tbaa !58
  store ptr %63, ptr %4, align 8
  store i32 1, ptr %16, align 4
  br label %192

64:                                               ; preds = %20
  %65 = load ptr, ptr %6, align 8, !tbaa !142
  %66 = call i32 @Vec_IntSize(ptr noundef %65)
  %67 = load ptr, ptr %7, align 8, !tbaa !142
  %68 = call i32 @Vec_IntSize(ptr noundef %67)
  %69 = add nsw i32 %66, %68
  store i32 %69, ptr %11, align 4, !tbaa !27
  %70 = load i32, ptr %11, align 4, !tbaa !27
  %71 = load i32, ptr %5, align 4, !tbaa !27
  %72 = add nsw i32 %71, 2
  %73 = mul nsw i32 %70, %72
  %74 = add nsw i32 %73, 1
  store i32 %74, ptr %12, align 4, !tbaa !27
  %75 = load i32, ptr %12, align 4, !tbaa !27
  %76 = sext i32 %75 to i64
  %77 = mul i64 1, %76
  %78 = call noalias ptr @malloc(i64 noundef %77) #10
  store ptr %78, ptr %9, align 8, !tbaa !58
  store ptr %78, ptr %8, align 8, !tbaa !58
  store i32 0, ptr %14, align 4, !tbaa !27
  br label %79

79:                                               ; preds = %130, %64
  %80 = load i32, ptr %14, align 4, !tbaa !27
  %81 = load ptr, ptr %6, align 8, !tbaa !142
  %82 = call i32 @Vec_IntSize(ptr noundef %81)
  %83 = icmp slt i32 %80, %82
  br i1 %83, label %84, label %88

84:                                               ; preds = %79
  %85 = load ptr, ptr %6, align 8, !tbaa !142
  %86 = load i32, ptr %14, align 4, !tbaa !27
  %87 = call i32 @Vec_IntEntry(ptr noundef %85, i32 noundef %86)
  store i32 %87, ptr %10, align 4, !tbaa !27
  br label %88

88:                                               ; preds = %84, %79
  %89 = phi i1 [ false, %79 ], [ true, %84 ]
  br i1 %89, label %90, label %133

90:                                               ; preds = %88
  store i32 0, ptr %15, align 4, !tbaa !27
  br label %91

91:                                               ; preds = %122, %90
  %92 = load i32, ptr %15, align 4, !tbaa !27
  %93 = load i32, ptr %5, align 4, !tbaa !27
  %94 = icmp slt i32 %92, %93
  br i1 %94, label %95, label %125

95:                                               ; preds = %91
  %96 = load i32, ptr %10, align 4, !tbaa !27
  %97 = load i32, ptr %15, align 4, !tbaa !27
  %98 = mul nsw i32 2, %97
  %99 = lshr i32 %96, %98
  %100 = and i32 %99, 3
  store i32 %100, ptr %13, align 4, !tbaa !27
  %101 = load i32, ptr %13, align 4, !tbaa !27
  %102 = icmp eq i32 %101, 1
  br i1 %102, label %103, label %106

103:                                              ; preds = %95
  %104 = load ptr, ptr %9, align 8, !tbaa !58
  %105 = getelementptr inbounds nuw i8, ptr %104, i32 1
  store ptr %105, ptr %9, align 8, !tbaa !58
  store i8 48, ptr %104, align 1, !tbaa !57
  br label %121

106:                                              ; preds = %95
  %107 = load i32, ptr %13, align 4, !tbaa !27
  %108 = icmp eq i32 %107, 2
  br i1 %108, label %109, label %112

109:                                              ; preds = %106
  %110 = load ptr, ptr %9, align 8, !tbaa !58
  %111 = getelementptr inbounds nuw i8, ptr %110, i32 1
  store ptr %111, ptr %9, align 8, !tbaa !58
  store i8 49, ptr %110, align 1, !tbaa !57
  br label %120

112:                                              ; preds = %106
  %113 = load i32, ptr %13, align 4, !tbaa !27
  %114 = icmp eq i32 %113, 0
  br i1 %114, label %115, label %118

115:                                              ; preds = %112
  %116 = load ptr, ptr %9, align 8, !tbaa !58
  %117 = getelementptr inbounds nuw i8, ptr %116, i32 1
  store ptr %117, ptr %9, align 8, !tbaa !58
  store i8 45, ptr %116, align 1, !tbaa !57
  br label %119

118:                                              ; preds = %112
  br label %119

119:                                              ; preds = %118, %115
  br label %120

120:                                              ; preds = %119, %109
  br label %121

121:                                              ; preds = %120, %103
  br label %122

122:                                              ; preds = %121
  %123 = load i32, ptr %15, align 4, !tbaa !27
  %124 = add nsw i32 %123, 1
  store i32 %124, ptr %15, align 4, !tbaa !27
  br label %91, !llvm.loop !144

125:                                              ; preds = %91
  %126 = load ptr, ptr %9, align 8, !tbaa !58
  %127 = getelementptr inbounds nuw i8, ptr %126, i32 1
  store ptr %127, ptr %9, align 8, !tbaa !58
  store i8 48, ptr %126, align 1, !tbaa !57
  %128 = load ptr, ptr %9, align 8, !tbaa !58
  %129 = getelementptr inbounds nuw i8, ptr %128, i32 1
  store ptr %129, ptr %9, align 8, !tbaa !58
  store i8 10, ptr %128, align 1, !tbaa !57
  br label %130

130:                                              ; preds = %125
  %131 = load i32, ptr %14, align 4, !tbaa !27
  %132 = add nsw i32 %131, 1
  store i32 %132, ptr %14, align 4, !tbaa !27
  br label %79, !llvm.loop !145

133:                                              ; preds = %88
  store i32 0, ptr %14, align 4, !tbaa !27
  br label %134

134:                                              ; preds = %185, %133
  %135 = load i32, ptr %14, align 4, !tbaa !27
  %136 = load ptr, ptr %7, align 8, !tbaa !142
  %137 = call i32 @Vec_IntSize(ptr noundef %136)
  %138 = icmp slt i32 %135, %137
  br i1 %138, label %139, label %143

139:                                              ; preds = %134
  %140 = load ptr, ptr %7, align 8, !tbaa !142
  %141 = load i32, ptr %14, align 4, !tbaa !27
  %142 = call i32 @Vec_IntEntry(ptr noundef %140, i32 noundef %141)
  store i32 %142, ptr %10, align 4, !tbaa !27
  br label %143

143:                                              ; preds = %139, %134
  %144 = phi i1 [ false, %134 ], [ true, %139 ]
  br i1 %144, label %145, label %188

145:                                              ; preds = %143
  store i32 0, ptr %15, align 4, !tbaa !27
  br label %146

146:                                              ; preds = %177, %145
  %147 = load i32, ptr %15, align 4, !tbaa !27
  %148 = load i32, ptr %5, align 4, !tbaa !27
  %149 = icmp slt i32 %147, %148
  br i1 %149, label %150, label %180

150:                                              ; preds = %146
  %151 = load i32, ptr %10, align 4, !tbaa !27
  %152 = load i32, ptr %15, align 4, !tbaa !27
  %153 = mul nsw i32 2, %152
  %154 = lshr i32 %151, %153
  %155 = and i32 %154, 3
  store i32 %155, ptr %13, align 4, !tbaa !27
  %156 = load i32, ptr %13, align 4, !tbaa !27
  %157 = icmp eq i32 %156, 1
  br i1 %157, label %158, label %161

158:                                              ; preds = %150
  %159 = load ptr, ptr %9, align 8, !tbaa !58
  %160 = getelementptr inbounds nuw i8, ptr %159, i32 1
  store ptr %160, ptr %9, align 8, !tbaa !58
  store i8 48, ptr %159, align 1, !tbaa !57
  br label %176

161:                                              ; preds = %150
  %162 = load i32, ptr %13, align 4, !tbaa !27
  %163 = icmp eq i32 %162, 2
  br i1 %163, label %164, label %167

164:                                              ; preds = %161
  %165 = load ptr, ptr %9, align 8, !tbaa !58
  %166 = getelementptr inbounds nuw i8, ptr %165, i32 1
  store ptr %166, ptr %9, align 8, !tbaa !58
  store i8 49, ptr %165, align 1, !tbaa !57
  br label %175

167:                                              ; preds = %161
  %168 = load i32, ptr %13, align 4, !tbaa !27
  %169 = icmp eq i32 %168, 0
  br i1 %169, label %170, label %173

170:                                              ; preds = %167
  %171 = load ptr, ptr %9, align 8, !tbaa !58
  %172 = getelementptr inbounds nuw i8, ptr %171, i32 1
  store ptr %172, ptr %9, align 8, !tbaa !58
  store i8 45, ptr %171, align 1, !tbaa !57
  br label %174

173:                                              ; preds = %167
  br label %174

174:                                              ; preds = %173, %170
  br label %175

175:                                              ; preds = %174, %164
  br label %176

176:                                              ; preds = %175, %158
  br label %177

177:                                              ; preds = %176
  %178 = load i32, ptr %15, align 4, !tbaa !27
  %179 = add nsw i32 %178, 1
  store i32 %179, ptr %15, align 4, !tbaa !27
  br label %146, !llvm.loop !146

180:                                              ; preds = %146
  %181 = load ptr, ptr %9, align 8, !tbaa !58
  %182 = getelementptr inbounds nuw i8, ptr %181, i32 1
  store ptr %182, ptr %9, align 8, !tbaa !58
  store i8 49, ptr %181, align 1, !tbaa !57
  %183 = load ptr, ptr %9, align 8, !tbaa !58
  %184 = getelementptr inbounds nuw i8, ptr %183, i32 1
  store ptr %184, ptr %9, align 8, !tbaa !58
  store i8 10, ptr %183, align 1, !tbaa !57
  br label %185

185:                                              ; preds = %180
  %186 = load i32, ptr %14, align 4, !tbaa !27
  %187 = add nsw i32 %186, 1
  store i32 %187, ptr %14, align 4, !tbaa !27
  br label %134, !llvm.loop !147

188:                                              ; preds = %143
  %189 = load ptr, ptr %9, align 8, !tbaa !58
  %190 = getelementptr inbounds nuw i8, ptr %189, i32 1
  store ptr %190, ptr %9, align 8, !tbaa !58
  store i8 0, ptr %189, align 1, !tbaa !57
  %191 = load ptr, ptr %8, align 8, !tbaa !58
  store ptr %191, ptr %4, align 8
  store i32 1, ptr %16, align 4
  br label %192

192:                                              ; preds = %188, %42
  call void @llvm.lifetime.end.p0(i64 4, ptr %15) #9
  call void @llvm.lifetime.end.p0(i64 4, ptr %14) #9
  call void @llvm.lifetime.end.p0(i64 4, ptr %13) #9
  call void @llvm.lifetime.end.p0(i64 4, ptr %12) #9
  call void @llvm.lifetime.end.p0(i64 4, ptr %11) #9
  call void @llvm.lifetime.end.p0(i64 4, ptr %10) #9
  call void @llvm.lifetime.end.p0(i64 8, ptr %9) #9
  call void @llvm.lifetime.end.p0(i64 8, ptr %8) #9
  %193 = load ptr, ptr %4, align 8
  ret ptr %193
}