; Function Attrs: nofree nounwind uwtable
define noalias noundef ptr @Abc_NodeConvertSopToMvSop(i32 noundef %0, ptr noundef readonly captures(none) %1, ptr noundef readonly captures(none) %2) local_unnamed_addr #8 {
  %4 = getelementptr i8, ptr %1, i64 4
  %.val72 = load i32, ptr %4, align 4, !tbaa !67
  %5 = icmp eq i32 %.val72, 0
  br i1 %5, label %9, label %6

6:                                                ; preds = %3
  %7 = getelementptr i8, ptr %2, i64 4
  %.val73 = load i32, ptr %7, align 4, !tbaa !67
  %8 = icmp eq i32 %.val73, 0
  br i1 %8, label %9, label %22

9:                                                ; preds = %6, %3
  %10 = add nsw i32 %0, 3
  %11 = sext i32 %10 to i64
  %12 = tail call noalias ptr @malloc(i64 noundef %11) #17
  %13 = icmp sgt i32 %0, 0
  br i1 %13, label %.lr.ph.preheader, label %._crit_edge

.lr.ph.preheader:                                 ; preds = %9
  %14 = zext nneg i32 %0 to i64
  tail call void @llvm.memset.p0.i64(ptr align 1 %12, i8 45, i64 %14, i1 false), !tbaa !48
  br label %._crit_edge

._crit_edge:                                      ; preds = %.lr.ph.preheader, %9
  %15 = getelementptr i8, ptr %2, i64 4
  %.val74 = load i32, ptr %15, align 4, !tbaa !67
  %16 = icmp sgt i32 %.val74, 0
  %17 = select i1 %16, i8 49, i8 48
  %18 = sext i32 %0 to i64
  %19 = getelementptr inbounds i8, ptr %12, i64 %18
  store i8 %17, ptr %19, align 1, !tbaa !48
  %20 = getelementptr i8, ptr %19, i64 1
  store i8 10, ptr %20, align 1, !tbaa !48
  %21 = getelementptr i8, ptr %19, i64 2
  store i8 0, ptr %21, align 1, !tbaa !48
  br label %73

22:                                               ; preds = %6
  %23 = add nsw i32 %.val73, %.val72
  %24 = add nsw i32 %0, 2
  %25 = mul nsw i32 %23, %24
  %26 = add nsw i32 %25, 1
  %27 = sext i32 %26 to i64
  %28 = tail call noalias ptr @malloc(i64 noundef %27) #17
  %29 = icmp sgt i32 %.val72, 0
  br i1 %29, label %.lr.ph89, label %.critedge.preheader

.lr.ph89:                                         ; preds = %22
  %30 = getelementptr i8, ptr %1, i64 8
  %31 = icmp sgt i32 %0, 0
  br i1 %31, label %.lr.ph.us, label %.lr.ph89.split

.lr.ph.us:                                        ; preds = %.lr.ph89, %._crit_edge.us
  %indvars.iv = phi i64 [ %indvars.iv.next, %._crit_edge.us ], [ 0, %.lr.ph89 ]
  %.06486.us = phi ptr [ %44, %._crit_edge.us ], [ %28, %.lr.ph89 ]
  %.val.us = load ptr, ptr %30, align 8, !tbaa !66
  %32 = getelementptr inbounds nuw i32, ptr %.val.us, i64 %indvars.iv
  %33 = load i32, ptr %32, align 4, !tbaa !44
  br label %34

34:                                               ; preds = %.lr.ph.us, %41
  %.184.us = phi i32 [ 0, %.lr.ph.us ], [ %42, %41 ]
  %.16583.us = phi ptr [ %.06486.us, %.lr.ph.us ], [ %.266.us, %41 ]
  %35 = shl nuw nsw i32 %.184.us, 1
  %36 = lshr i32 %33, %35
  %37 = and i32 %36, 3
  switch i32 %37, label %.unreachabledefault [
    i32 1, label %39
    i32 2, label %38
    i32 0, label %.sink.split
    i32 3, label %41
  ]

38:                                               ; preds = %34
  br label %.sink.split

39:                                               ; preds = %34
  br label %.sink.split

.sink.split:                                      ; preds = %34, %38, %39
  %.sink = phi i8 [ 48, %39 ], [ 49, %38 ], [ 45, %34 ]
  %40 = getelementptr inbounds nuw i8, ptr %.16583.us, i64 1
  store i8 %.sink, ptr %.16583.us, align 1, !tbaa !48
  br label %41

41:                                               ; preds = %.sink.split, %34
  %.266.us = phi ptr [ %.16583.us, %34 ], [ %40, %.sink.split ]
  %42 = add nuw nsw i32 %.184.us, 1
  %exitcond.not = icmp eq i32 %42, %0
  br i1 %exitcond.not, label %._crit_edge.us, label %34, !llvm.loop !119

._crit_edge.us:                                   ; preds = %41
  %43 = getelementptr inbounds nuw i8, ptr %.266.us, i64 1
  store i8 48, ptr %.266.us, align 1, !tbaa !48
  %44 = getelementptr inbounds nuw i8, ptr %.266.us, i64 2
  store i8 10, ptr %43, align 1, !tbaa !48
  %indvars.iv.next = add nuw nsw i64 %indvars.iv, 1
  %.val77.us = load i32, ptr %4, align 4, !tbaa !67
  %45 = sext i32 %.val77.us to i64
  %46 = icmp slt i64 %indvars.iv.next, %45
  br i1 %46, label %.lr.ph.us, label %.critedge.preheader.loopexit, !llvm.loop !120

.unreachabledefault:                              ; preds = %34
  unreachable

default.unreachable:                              ; preds = %52
  unreachable

.critedge.preheader.loopexit:                     ; preds = %._crit_edge.us
  %.val7893.pre = load i32, ptr %7, align 4, !tbaa !67
  br label %.critedge.preheader

.critedge.preheader:                              ; preds = %.lr.ph89.split, %.critedge.preheader.loopexit, %22
  %.val7893 = phi i32 [ %.val73, %22 ], [ %.val7893.pre, %.critedge.preheader.loopexit ], [ %.val73, %.lr.ph89.split ]
  %.064.lcssa = phi ptr [ %28, %22 ], [ %44, %.critedge.preheader.loopexit ], [ %66, %.lr.ph89.split ]
  %47 = icmp sgt i32 %.val7893, 0
  br i1 %47, label %.lr.ph96, label %.critedge2

.lr.ph96:                                         ; preds = %.critedge.preheader
  %48 = getelementptr i8, ptr %2, i64 8
  %49 = icmp sgt i32 %0, 0
  br i1 %49, label %.lr.ph.us98, label %.critedge

.lr.ph.us98:                                      ; preds = %.lr.ph96, %._crit_edge.us99
  %indvars.iv113 = phi i64 [ %indvars.iv.next114, %._crit_edge.us99 ], [ 0, %.lr.ph96 ]
  %.394.us = phi ptr [ %62, %._crit_edge.us99 ], [ %.064.lcssa, %.lr.ph96 ]
  %.val71.us = load ptr, ptr %48, align 8, !tbaa !66
  %50 = getelementptr inbounds nuw i32, ptr %.val71.us, i64 %indvars.iv113
  %51 = load i32, ptr %50, align 4, !tbaa !44
  br label %52

52:                                               ; preds = %.lr.ph.us98, %59
  %.292.us = phi i32 [ 0, %.lr.ph.us98 ], [ %60, %59 ]
  %.491.us = phi ptr [ %.394.us, %.lr.ph.us98 ], [ %.5.us, %59 ]
  %53 = shl nuw nsw i32 %.292.us, 1
  %54 = lshr i32 %51, %53
  %55 = and i32 %54, 3
  switch i32 %55, label %default.unreachable [
    i32 1, label %57
    i32 2, label %56
    i32 0, label %.sink.split126
    i32 3, label %59
  ]

56:                                               ; preds = %52
  br label %.sink.split126

57:                                               ; preds = %52
  br label %.sink.split126

.sink.split126:                                   ; preds = %52, %56, %57
  %.sink127 = phi i8 [ 48, %57 ], [ 49, %56 ], [ 45, %52 ]
  %58 = getelementptr inbounds nuw i8, ptr %.491.us, i64 1
  store i8 %.sink127, ptr %.491.us, align 1, !tbaa !48
  br label %59

59:                                               ; preds = %.sink.split126, %52
  %.5.us = phi ptr [ %.491.us, %52 ], [ %58, %.sink.split126 ]
  %60 = add nuw nsw i32 %.292.us, 1
  %exitcond112.not = icmp eq i32 %60, %0
  br i1 %exitcond112.not, label %._crit_edge.us99, label %52, !llvm.loop !121

._crit_edge.us99:                                 ; preds = %59
  %61 = getelementptr inbounds nuw i8, ptr %.5.us, i64 1
  store i8 49, ptr %.5.us, align 1, !tbaa !48
  %62 = getelementptr inbounds nuw i8, ptr %.5.us, i64 2
  store i8 10, ptr %61, align 1, !tbaa !48
  %indvars.iv.next114 = add nuw nsw i64 %indvars.iv113, 1
  %.val78.us = load i32, ptr %7, align 4, !tbaa !67
  %63 = sext i32 %.val78.us to i64
  %64 = icmp slt i64 %indvars.iv.next114, %63
  br i1 %64, label %.lr.ph.us98, label %.critedge2, !llvm.loop !122

.lr.ph89.split:                                   ; preds = %.lr.ph89, %.lr.ph89.split
  %.06187 = phi i32 [ %67, %.lr.ph89.split ], [ 0, %.lr.ph89 ]
  %.06486 = phi ptr [ %66, %.lr.ph89.split ], [ %28, %.lr.ph89 ]
  %65 = getelementptr inbounds nuw i8, ptr %.06486, i64 1
  store i8 48, ptr %.06486, align 1, !tbaa !48
  %66 = getelementptr inbounds nuw i8, ptr %.06486, i64 2
  store i8 10, ptr %65, align 1, !tbaa !48
  %67 = add nuw nsw i32 %.06187, 1
  %68 = icmp slt i32 %67, %.val72
  br i1 %68, label %.lr.ph89.split, label %.critedge.preheader, !llvm.loop !120

.critedge:                                        ; preds = %.lr.ph96, %.critedge
  %.16295 = phi i32 [ %71, %.critedge ], [ 0, %.lr.ph96 ]
  %.394 = phi ptr [ %70, %.critedge ], [ %.064.lcssa, %.lr.ph96 ]
  %69 = getelementptr inbounds nuw i8, ptr %.394, i64 1
  store i8 49, ptr %.394, align 1, !tbaa !48
  %70 = getelementptr inbounds nuw i8, ptr %.394, i64 2
  store i8 10, ptr %69, align 1, !tbaa !48
  %71 = add nuw nsw i32 %.16295, 1
  %.val78 = load i32, ptr %7, align 4, !tbaa !67
  %72 = icmp slt i32 %71, %.val78
  br i1 %72, label %.critedge, label %.critedge2, !llvm.loop !122

.critedge2:                                       ; preds = %.critedge, %._crit_edge.us99, %.critedge.preheader
  %.3.lcssa = phi ptr [ %.064.lcssa, %.critedge.preheader ], [ %62, %._crit_edge.us99 ], [ %70, %.critedge ]
  store i8 0, ptr %.3.lcssa, align 1, !tbaa !48
  br label %73

73:                                               ; preds = %.critedge2, %._crit_edge
  %.063 = phi ptr [ %12, %._crit_edge ], [ %28, %.critedge2 ]
  ret ptr %.063
}